target datalayout = "e-m:e-p270:32:32-p271:32:32-p272:64:64-i64:64-i128:128-f80:128-n8:16:32:64-S128"
target triple = "x86_64-pc-linux-gnu"

%"class.std::vector" = type { %"struct.std::_Vector_base" }
%"struct.std::_Vector_base" = type { %"struct.std::_Vector_base<std::__cxx11::basic_string<char>, std::allocator<std::__cxx11::basic_string<char>>>::_Vector_impl" }
%"struct.std::_Vector_base<std::__cxx11::basic_string<char>, std::allocator<std::__cxx11::basic_string<char>>>::_Vector_impl" = type { %"struct.std::_Vector_base<std::__cxx11::basic_string<char>, std::allocator<std::__cxx11::basic_string<char>>>::_Vector_impl_data" }
%"struct.std::_Vector_base<std::__cxx11::basic_string<char>, std::allocator<std::__cxx11::basic_string<char>>>::_Vector_impl_data" = type { ptr, ptr, ptr }
%struct.EvaluatedTargetPropertyEntries = type <{ %"class.std::vector.197", i8, [7 x i8] }>
%"class.std::vector.197" = type { %"struct.std::_Vector_base.198" }
%"struct.std::_Vector_base.198" = type { %"struct.std::_Vector_base<EvaluatedTargetPropertyEntry, std::allocator<EvaluatedTargetPropertyEntry>>::_Vector_impl" }
%"struct.std::_Vector_base<EvaluatedTargetPropertyEntry, std::allocator<EvaluatedTargetPropertyEntry>>::_Vector_impl" = type { %"struct.std::_Vector_base<EvaluatedTargetPropertyEntry, std::allocator<EvaluatedTargetPropertyEntry>>::_Vector_impl_data" }
%"struct.std::_Vector_base<EvaluatedTargetPropertyEntry, std::allocator<EvaluatedTargetPropertyEntry>>::_Vector_impl_data" = type { ptr, ptr, ptr }
%"struct.std::__detail::_Node_const_iterator" = type { %"struct.std::__detail::_Node_iterator_base" }
%"struct.std::__detail::_Node_iterator_base" = type { ptr }
%struct.cmLinkImplementationLibraries = type <{ %"class.std::vector.204", %"class.std::vector.209", i8, [7 x i8] }>
%"class.std::vector.204" = type { %"struct.std::_Vector_base.205" }
%"struct.std::_Vector_base.205" = type { %"struct.std::_Vector_base<cmLinkImplItem, std::allocator<cmLinkImplItem>>::_Vector_impl" }
%"struct.std::_Vector_base<cmLinkImplItem, std::allocator<cmLinkImplItem>>::_Vector_impl" = type { %"struct.std::_Vector_base<cmLinkImplItem, std::allocator<cmLinkImplItem>>::_Vector_impl_data" }
%"struct.std::_Vector_base<cmLinkImplItem, std::allocator<cmLinkImplItem>>::_Vector_impl_data" = type { ptr, ptr, ptr }
%"class.std::vector.209" = type { %"struct.std::_Vector_base.210" }
%"struct.std::_Vector_base.210" = type { %"struct.std::_Vector_base<cmLinkItem, std::allocator<cmLinkItem>>::_Vector_impl" }
%"struct.std::_Vector_base<cmLinkItem, std::allocator<cmLinkItem>>::_Vector_impl" = type { %"struct.std::_Vector_base<cmLinkItem, std::allocator<cmLinkItem>>::_Vector_impl_data" }
%"struct.std::_Vector_base<cmLinkItem, std::allocator<cmLinkItem>>::_Vector_impl_data" = type { ptr, ptr, ptr }
%struct.cmLinkImplementation = type <{ %struct.cmLinkImplementationLibraries.base, [7 x i8], %"class.std::vector", %"class.std::unordered_map.214", i8, [7 x i8] }>
%struct.cmLinkImplementationLibraries.base = type <{ %"class.std::vector.204", %"class.std::vector.209", i8 }>
%"class.std::unordered_map.214" = type { %"class.std::_Hashtable.215" }
%"class.std::_Hashtable.215" = type { ptr, i64, %"struct.std::__detail::_Hash_node_base", i64, %"struct.std::__detail::_Prime_rehash_policy", ptr }
%"struct.std::__detail::_Hash_node_base" = type { ptr }
%"struct.std::__detail::_Prime_rehash_policy" = type { float, i64 }
%"struct.std::pair" = type { %"class.std::__cxx11::basic_string", %"class.std::vector.204" }
%"class.std::__cxx11::basic_string" = type { %"struct.std::__cxx11::basic_string<char>::_Alloc_hider", i64, %union.anon }
%"struct.std::__cxx11::basic_string<char>::_Alloc_hider" = type { ptr }
%union.anon = type { i64, [8 x i8] }
%"struct.std::__detail::_Hash_node_value_base" = type { %"struct.__gnu_cxx::__aligned_buffer" }
%"struct.__gnu_cxx::__aligned_buffer" = type { %"union.std::aligned_storage<56, 8>::type" }
%"union.std::aligned_storage<56, 8>::type" = type { [56 x i8] }

; Function Attrs: mustprogress nounwind uwtable
define linkonce_odr dso_local noundef ptr @_ZN9__gnu_cxx16__aligned_bufferISt4pairIKNSt7__cxx1112basic_stringIcSt11char_traitsIcESaIcEEESt6vectorI14cmLinkImplItemSaISA_EEEE7_M_addrEv(ptr noundef nonnull align 8 dereferenceable(56) %0) #6 comdat align 2 {
  %2 = alloca ptr, align 8
  store ptr %0, ptr %2, align 8, !tbaa !368
  %3 = load ptr, ptr %2, align 8
  %4 = getelementptr inbounds nuw %"struct.__gnu_cxx::__aligned_buffer", ptr %3, i32 0, i32 0
  ret ptr %4
}

; Function Attrs: mustprogress nounwind uwtable
define linkonce_odr dso_local void @_ZNSt8__detail19_Node_iterator_baseISt4pairIKNSt7__cxx1112basic_stringIcSt11char_traitsIcESaIcEEESt6vectorI14cmLinkImplItemSaISA_EEELb1EEC2EPNS_10_Hash_nodeISD_Lb1EEE(ptr noundef nonnull align 8 dereferenceable(8) %0, ptr noundef %1) unnamed_addr #6 comdat align 2 {
  %3 = alloca ptr, align 8
  %4 = alloca ptr, align 8
  store ptr %0, ptr %3, align 8, !tbaa !106
  store ptr %1, ptr %4, align 8, !tbaa !356
  %5 = load ptr, ptr %3, align 8
  %6 = getelementptr inbounds nuw %"struct.std::__detail::_Node_iterator_base", ptr %5, i32 0, i32 0
  %7 = load ptr, ptr %4, align 8, !tbaa !356
  store ptr %7, ptr %6, align 8, !tbaa !108
  ret void
}

; Function Attrs: mustprogress nounwind uwtable
define linkonce_odr dso_local noundef ptr @_ZN9__gnu_cxx16__aligned_bufferISt4pairIKNSt7__cxx1112basic_stringIcSt11char_traitsIcESaIcEEESt6vectorI14cmLinkImplItemSaISA_EEEE6_M_ptrEv(ptr noundef nonnull align 8 dereferenceable(56) %0) #6 comdat align 2 {
  %2 = alloca ptr, align 8
  store ptr %0, ptr %2, align 8, !tbaa !368
  %3 = load ptr, ptr %2, align 8
  %4 = call noundef ptr @_ZN9__gnu_cxx16__aligned_bufferISt4pairIKNSt7__cxx1112basic_stringIcSt11char_traitsIcESaIcEEESt6vectorI14cmLinkImplItemSaISA_EEEE7_M_addrEv(ptr noundef nonnull align 8 dereferenceable(56) %3) #3
  ret ptr %4
}

; Function Attrs: mustprogress nounwind uwtable
define linkonce_odr dso_local void @_ZNSt8__detail20_Node_const_iteratorISt4pairIKNSt7__cxx1112basic_stringIcSt11char_traitsIcESaIcEEESt6vectorI14cmLinkImplItemSaISA_EEELb0ELb1EEC2EPNS_10_Hash_nodeISD_Lb1EEE(ptr noundef nonnull align 8 dereferenceable(8) %0, ptr noundef %1) unnamed_addr #6 comdat align 2 {
  %3 = alloca ptr, align 8
  %4 = alloca ptr, align 8
  store ptr %0, ptr %3, align 8, !tbaa !143
  store ptr %1, ptr %4, align 8, !tbaa !356
  %5 = load ptr, ptr %3, align 8
  %6 = load ptr, ptr %4, align 8, !tbaa !356
  call void @_ZNSt8__detail19_Node_iterator_baseISt4pairIKNSt7__cxx1112basic_stringIcSt11char_traitsIcESaIcEEESt6vectorI14cmLinkImplItemSaISA_EEELb1EEC2EPNS_10_Hash_nodeISD_Lb1EEE(ptr noundef nonnull align 8 dereferenceable(8) %5, ptr noundef %6) #3
  ret void
}

; Function Attrs: mustprogress nounwind uwtable
define linkonce_odr dso_local noundef ptr @_ZNSt8__detail21_Hash_node_value_baseISt4pairIKNSt7__cxx1112basic_stringIcSt11char_traitsIcESaIcEEESt6vectorI14cmLinkImplItemSaISA_EEEE9_M_valptrEv(ptr noundef nonnull align 8 dereferenceable(56) %0) #6 comdat align 2 {
  %2 = alloca ptr, align 8
  store ptr %0, ptr %2, align 8, !tbaa !364
  %3 = load ptr, ptr %2, align 8
  %4 = getelementptr inbounds nuw %"struct.std::__detail::_Hash_node_value_base", ptr %3, i32 0, i32 0
  %5 = call noundef ptr @_ZN9__gnu_cxx16__aligned_bufferISt4pairIKNSt7__cxx1112basic_stringIcSt11char_traitsIcESaIcEEESt6vectorI14cmLinkImplItemSaISA_EEEE6_M_ptrEv(ptr noundef nonnull align 8 dereferenceable(56) %4) #3
  ret ptr %5
}

; Function Attrs: mustprogress nounwind uwtable
define linkonce_odr dso_local ptr @_ZNKSt10_HashtableINSt7__cxx1112basic_stringIcSt11char_traitsIcESaIcEEESt4pairIKS5_St6vectorI14cmLinkImplItemSaIS9_EEESaISC_ENSt8__detail10_Select1stESt8equal_toIS5_ESt4hashIS5_ENSE_18_Mod_range_hashingENSE_20_Default_ranged_hashENSE_20_Prime_rehash_policyENSE_17_Hashtable_traitsILb1ELb0ELb1EEEE3endEv(ptr noundef nonnull align 8 dereferenceable(56) %0) #6 comdat align 2 {
  %2 = alloca %"struct.std::__detail::_Node_const_iterator", align 8
  %3 = alloca ptr, align 8
  store ptr %0, ptr %3, align 8, !tbaa !337
  call void @_ZNSt8__detail20_Node_const_iteratorISt4pairIKNSt7__cxx1112basic_stringIcSt11char_traitsIcESaIcEEESt6vectorI14cmLinkImplItemSaISA_EEELb0ELb1EEC2EPNS_10_Hash_nodeISD_Lb1EEE(ptr noundef nonnull align 8 dereferenceable(8) %2, ptr noundef null) #3
  %4 = getelementptr inbounds nuw %"struct.std::__detail::_Node_const_iterator", ptr %2, i32 0, i32 0
  %5 = getelementptr inbounds nuw %"struct.std::__detail::_Node_iterator_base", ptr %4, i32 0, i32 0
  %6 = load ptr, ptr %5, align 8
  ret ptr %6
}

; Function Attrs: mustprogress nounwind uwtable
define linkonce_odr dso_local noundef ptr @_ZNKSt8__detail20_Node_const_iteratorISt4pairIKNSt7__cxx1112basic_stringIcSt11char_traitsIcESaIcEEESt6vectorI14cmLinkImplItemSaISA_EEELb0ELb1EEptEv(ptr noundef nonnull align 8 dereferenceable(8) %0) #6 comdat align 2 {
  %2 = alloca ptr, align 8
  store ptr %0, ptr %2, align 8, !tbaa !143
  %3 = load ptr, ptr %2, align 8
  %4 = getelementptr inbounds nuw %"struct.std::__detail::_Node_iterator_base", ptr %3, i32 0, i32 0
  %5 = load ptr, ptr %4, align 8, !tbaa !108
  %6 = getelementptr inbounds i8, ptr %5, i64 8
  %7 = call noundef ptr @_ZNSt8__detail21_Hash_node_value_baseISt4pairIKNSt7__cxx1112basic_stringIcSt11char_traitsIcESaIcEEESt6vectorI14cmLinkImplItemSaISA_EEEE9_M_valptrEv(ptr noundef nonnull align 8 dereferenceable(56) %6) #3
  ret ptr %7
}

; Function Attrs: mustprogress nounwind uwtable
define linkonce_odr dso_local noundef zeroext i1 @_ZNSt8__detailneERKNS_19_Node_iterator_baseISt4pairIKNSt7__cxx1112basic_stringIcSt11char_traitsIcESaIcEEESt6vectorI14cmLinkImplItemSaISA_EEELb1EEESG_(ptr noundef nonnull align 8 dereferenceable(8) %0, ptr noundef nonnull align 8 dereferenceable(8) %1) #6 comdat {
  %3 = alloca ptr, align 8
  %4 = alloca ptr, align 8
  store ptr %0, ptr %3, align 8, !tbaa !106
  store ptr %1, ptr %4, align 8, !tbaa !106
  %5 = load ptr, ptr %3, align 8, !tbaa !106
  %6 = getelementptr inbounds nuw %"struct.std::__detail::_Node_iterator_base", ptr %5, i32 0, i32 0
  %7 = load ptr, ptr %6, align 8, !tbaa !108
  %8 = load ptr, ptr %4, align 8, !tbaa !106
  %9 = getelementptr inbounds nuw %"struct.std::__detail::_Node_iterator_base", ptr %8, i32 0, i32 0
  %10 = load ptr, ptr %9, align 8, !tbaa !108
  %11 = icmp ne ptr %7, %10
  ret i1 %11
}

; Function Attrs: mustprogress nounwind uwtable
define linkonce_odr dso_local ptr @_ZNKSt13unordered_mapINSt7__cxx1112basic_stringIcSt11char_traitsIcESaIcEEESt6vectorI14cmLinkImplItemSaIS7_EESt4hashIS5_ESt8equal_toIS5_ESaISt4pairIKS5_S9_EEE3endEv(ptr noundef nonnull align 8 dereferenceable(56) %0) #6 comdat align 2 {
  %2 = alloca %"struct.std::__detail::_Node_const_iterator", align 8
  %3 = alloca ptr, align 8
  store ptr %0, ptr %3, align 8, !tbaa !104
  %4 = load ptr, ptr %3, align 8
  %5 = getelementptr inbounds nuw %"class.std::unordered_map.214", ptr %4, i32 0, i32 0
  %6 = call ptr @_ZNKSt10_HashtableINSt7__cxx1112basic_stringIcSt11char_traitsIcESaIcEEESt4pairIKS5_St6vectorI14cmLinkImplItemSaIS9_EEESaISC_ENSt8__detail10_Select1stESt8equal_toIS5_ESt4hashIS5_ENSE_18_Mod_range_hashingENSE_20_Default_ranged_hashENSE_20_Prime_rehash_policyENSE_17_Hashtable_traitsILb1ELb0ELb1EEEE3endEv(ptr noundef nonnull align 8 dereferenceable(56) %5) #3
  %7 = getelementptr inbounds nuw %"struct.std::__detail::_Node_const_iterator", ptr %2, i32 0, i32 0
  %8 = getelementptr inbounds nuw %"struct.std::__detail::_Node_iterator_base", ptr %7, i32 0, i32 0
  store ptr %6, ptr %8, align 8
  %9 = getelementptr inbounds nuw %"struct.std::__detail::_Node_const_iterator", ptr %2, i32 0, i32 0
  %10 = getelementptr inbounds nuw %"struct.std::__detail::_Node_iterator_base", ptr %9, i32 0, i32 0
  %11 = load ptr, ptr %10, align 8
  ret ptr %11
}

; Function Attrs: mustprogress uwtable
define linkonce_odr dso_local ptr @_ZNKSt13unordered_mapINSt7__cxx1112basic_stringIcSt11char_traitsIcESaIcEEESt6vectorI14cmLinkImplItemSaIS7_EESt4hashIS5_ESt8equal_toIS5_ESaISt4pairIKS5_S9_EEE4findERSF_(ptr noundef nonnull align 8 dereferenceable(56) %0, ptr noundef nonnull align 8 dereferenceable(32) %1) #5 comdat align 2 {
  %3 = alloca %"struct.std::__detail::_Node_const_iterator", align 8
  %4 = alloca ptr, align 8
  %5 = alloca ptr, align 8
  store ptr %0, ptr %4, align 8, !tbaa !104
  store ptr %1, ptr %5, align 8, !tbaa !43
  %6 = load ptr, ptr %4, align 8
  %7 = getelementptr inbounds nuw %"class.std::unordered_map.214", ptr %6, i32 0, i32 0
  %8 = load ptr, ptr %5, align 8, !tbaa !43
  %9 = call ptr @_ZNKSt10_HashtableINSt7__cxx1112basic_stringIcSt11char_traitsIcESaIcEEESt4pairIKS5_St6vectorI14cmLinkImplItemSaIS9_EEESaISC_ENSt8__detail10_Select1stESt8equal_toIS5_ESt4hashIS5_ENSE_18_Mod_range_hashingENSE_20_Default_ranged_hashENSE_20_Prime_rehash_policyENSE_17_Hashtable_traitsILb1ELb0ELb1EEEE4findERS7_(ptr noundef nonnull align 8 dereferenceable(56) %7, ptr noundef nonnull align 8 dereferenceable(32) %8)
  %10 = getelementptr inbounds nuw %"struct.std::__detail::_Node_const_iterator", ptr %3, i32 0, i32 0
  %11 = getelementptr inbounds nuw %"struct.std::__detail::_Node_iterator_base", ptr %10, i32 0, i32 0
  store ptr %9, ptr %11, align 8
  %12 = getelementptr inbounds nuw %"struct.std::__detail::_Node_const_iterator", ptr %3, i32 0, i32 0
  %13 = getelementptr inbounds nuw %"struct.std::__detail::_Node_iterator_base", ptr %12, i32 0, i32 0
  %14 = load ptr, ptr %13, align 8
  ret ptr %14
}

; Function Attrs: mustprogress uwtable
define dso_local void @_Z19AddInterfaceEntriesPK17cmGeneratorTargetRKNSt7__cxx1112basic_stringIcSt11char_traitsIcESaIcEEES9_S9_P31cmGeneratorExpressionDAGCheckerR30EvaluatedTargetPropertyEntries23IncludeRuntimeInterfaceNS_5UseToE(ptr noundef %0, ptr noundef nonnull align 8 dereferenceable(32) %1, ptr noundef nonnull align 8 dereferenceable(32) %2, ptr noundef nonnull align 8 dereferenceable(32) %3, ptr noundef %4, ptr noundef nonnull align 8 dereferenceable(25) %5, i32 noundef %6, i32 noundef %7) #5 {
  %9 = alloca ptr, align 8
  %10 = alloca ptr, align 8
  %11 = alloca ptr, align 8
  %12 = alloca ptr, align 8
  %13 = alloca ptr, align 8
  %14 = alloca ptr, align 8
  %15 = alloca i32, align 4
  %16 = alloca i32, align 4
  %17 = alloca ptr, align 8
  %18 = alloca %"struct.std::__detail::_Node_const_iterator", align 8
  %19 = alloca %"struct.std::__detail::_Node_const_iterator", align 8
  %20 = alloca ptr, align 8
  store ptr %0, ptr %9, align 8, !tbaa !41
  store ptr %1, ptr %10, align 8, !tbaa !43
  store ptr %2, ptr %11, align 8, !tbaa !43
  store ptr %3, ptr %12, align 8, !tbaa !43
  store ptr %4, ptr %13, align 8, !tbaa !44
  store ptr %5, ptr %14, align 8, !tbaa !63
  store i32 %6, ptr %15, align 4, !tbaa !83
  store i32 %7, ptr %16, align 4, !tbaa !85
  %21 = load i32, ptr %15, align 4, !tbaa !83
  %22 = icmp eq i32 %21, 0
  br i1 %22, label %23, label %71

23:                                               ; preds = %8
  call void @llvm.lifetime.start.p0(i64 8, ptr %17) #3
  %24 = load ptr, ptr %9, align 8, !tbaa !41
  %25 = load ptr, ptr %10, align 8, !tbaa !43
  %26 = load i32, ptr %16, align 4, !tbaa !85
  %27 = call noundef ptr @_ZNK17cmGeneratorTarget21GetLinkImplementationERKNSt7__cxx1112basic_stringIcSt11char_traitsIcESaIcEEENS_5UseToE(ptr noundef nonnull align 8 dereferenceable(2912) %24, ptr noundef nonnull align 8 dereferenceable(32) %25, i32 noundef %26)
  store ptr %27, ptr %17, align 8, !tbaa !87
  %28 = load ptr, ptr %17, align 8, !tbaa !87
  %29 = icmp ne ptr %28, null
  br i1 %29, label %30, label %70

30:                                               ; preds = %23
  %31 = load ptr, ptr %17, align 8, !tbaa !87
  %32 = getelementptr inbounds nuw %struct.cmLinkImplementationLibraries, ptr %31, i32 0, i32 2
  %33 = load i8, ptr %32, align 8, !tbaa !89, !range !100, !noundef !101
  %34 = trunc i8 %33 to i1
  %35 = load ptr, ptr %14, align 8, !tbaa !63
  %36 = getelementptr inbounds nuw %struct.EvaluatedTargetPropertyEntries, ptr %35, i32 0, i32 1
  %37 = zext i1 %34 to i8
  store i8 %37, ptr %36, align 8, !tbaa !65
  call void @llvm.lifetime.start.p0(i64 8, ptr %18) #3
  %38 = load ptr, ptr %17, align 8, !tbaa !87
  %39 = getelementptr inbounds nuw %struct.cmLinkImplementation, ptr %38, i32 0, i32 3
  %40 = load ptr, ptr %12, align 8, !tbaa !43
  %41 = call ptr @_ZNKSt13unordered_mapINSt7__cxx1112basic_stringIcSt11char_traitsIcESaIcEEESt6vectorI14cmLinkImplItemSaIS7_EESt4hashIS5_ESt8equal_toIS5_ESaISt4pairIKS5_S9_EEE4findERSF_(ptr noundef nonnull align 8 dereferenceable(56) %39, ptr noundef nonnull align 8 dereferenceable(32) %40)
  %42 = getelementptr inbounds nuw %"struct.std::__detail::_Node_const_iterator", ptr %18, i32 0, i32 0
  %43 = getelementptr inbounds nuw %"struct.std::__detail::_Node_iterator_base", ptr %42, i32 0, i32 0
  store ptr %41, ptr %43, align 8
  call void @llvm.lifetime.start.p0(i64 8, ptr %19) #3
  %44 = load ptr, ptr %17, align 8, !tbaa !87
  %45 = getelementptr inbounds nuw %struct.cmLinkImplementation, ptr %44, i32 0, i32 3
  %46 = call ptr @_ZNKSt13unordered_mapINSt7__cxx1112basic_stringIcSt11char_traitsIcESaIcEEESt6vectorI14cmLinkImplItemSaIS7_EESt4hashIS5_ESt8equal_toIS5_ESaISt4pairIKS5_S9_EEE3endEv(ptr noundef nonnull align 8 dereferenceable(56) %45) #3
  %47 = getelementptr inbounds nuw %"struct.std::__detail::_Node_const_iterator", ptr %19, i32 0, i32 0
  %48 = getelementptr inbounds nuw %"struct.std::__detail::_Node_iterator_base", ptr %47, i32 0, i32 0
  store ptr %46, ptr %48, align 8
  %49 = call noundef zeroext i1 @_ZNSt8__detailneERKNS_19_Node_iterator_baseISt4pairIKNSt7__cxx1112basic_stringIcSt11char_traitsIcESaIcEEESt6vectorI14cmLinkImplItemSaISA_EEELb1EEESG_(ptr noundef nonnull align 8 dereferenceable(8) %18, ptr noundef nonnull align 8 dereferenceable(8) %19) #3
  call void @llvm.lifetime.end.p0(i64 8, ptr %19) #3
  br i1 %49, label %50, label %60

50:                                               ; preds = %30
  %51 = load ptr, ptr %9, align 8, !tbaa !41
  %52 = load ptr, ptr %10, align 8, !tbaa !43
  %53 = load ptr, ptr %11, align 8, !tbaa !43
  %54 = load ptr, ptr %12, align 8, !tbaa !43
  %55 = load ptr, ptr %13, align 8, !tbaa !44
  %56 = load ptr, ptr %14, align 8, !tbaa !63
  %57 = load i32, ptr %16, align 4, !tbaa !85
  %58 = call noundef ptr @_ZNKSt8__detail20_Node_const_iteratorISt4pairIKNSt7__cxx1112basic_stringIcSt11char_traitsIcESaIcEEESt6vectorI14cmLinkImplItemSaISA_EEELb0ELb1EEptEv(ptr noundef nonnull align 8 dereferenceable(8) %18) #3
  %59 = getelementptr inbounds nuw %"struct.std::pair", ptr %58, i32 0, i32 1
  call void @_ZN12_GLOBAL__N_117addInterfaceEntryEPK17cmGeneratorTargetRKNSt7__cxx1112basic_stringIcSt11char_traitsIcESaIcEEESA_SA_P31cmGeneratorExpressionDAGCheckerR30EvaluatedTargetPropertyEntriesNS0_5UseToERKSt6vectorI14cmLinkImplItemSaISH_EE(ptr noundef %51, ptr noundef nonnull align 8 dereferenceable(32) %52, ptr noundef nonnull align 8 dereferenceable(32) %53, ptr noundef nonnull align 8 dereferenceable(32) %54, ptr noundef %55, ptr noundef nonnull align 8 dereferenceable(25) %56, i32 noundef %57, ptr noundef nonnull align 8 dereferenceable(24) %59)
  br label %60

60:                                               ; preds = %50, %30
  %61 = load ptr, ptr %9, align 8, !tbaa !41
  %62 = load ptr, ptr %10, align 8, !tbaa !43
  %63 = load ptr, ptr %11, align 8, !tbaa !43
  %64 = load ptr, ptr %12, align 8, !tbaa !43
  %65 = load ptr, ptr %13, align 8, !tbaa !44
  %66 = load ptr, ptr %14, align 8, !tbaa !63
  %67 = load i32, ptr %16, align 4, !tbaa !85
  %68 = load ptr, ptr %17, align 8, !tbaa !87
  %69 = getelementptr inbounds nuw %struct.cmLinkImplementationLibraries, ptr %68, i32 0, i32 0
  call void @_ZN12_GLOBAL__N_117addInterfaceEntryEPK17cmGeneratorTargetRKNSt7__cxx1112basic_stringIcSt11char_traitsIcESaIcEEESA_SA_P31cmGeneratorExpressionDAGCheckerR30EvaluatedTargetPropertyEntriesNS0_5UseToERKSt6vectorI14cmLinkImplItemSaISH_EE(ptr noundef %61, ptr noundef nonnull align 8 dereferenceable(32) %62, ptr noundef nonnull align 8 dereferenceable(32) %63, ptr noundef nonnull align 8 dereferenceable(32) %64, ptr noundef %65, ptr noundef nonnull align 8 dereferenceable(25) %66, i32 noundef %67, ptr noundef nonnull align 8 dereferenceable(24) %69)
  call void @llvm.lifetime.end.p0(i64 8, ptr %18) #3
  br label %70

70:                                               ; preds = %60, %23
  call void @llvm.lifetime.end.p0(i64 8, ptr %17) #3
  br label %96

71:                                               ; preds = %8
  call void @llvm.lifetime.start.p0(i64 8, ptr %20) #3
  %72 = load ptr, ptr %9, align 8, !tbaa !41
  %73 = load ptr, ptr %10, align 8, !tbaa !43
  %74 = load i32, ptr %16, align 4, !tbaa !85
  %75 = call noundef ptr @_ZNK17cmGeneratorTarget30GetLinkImplementationLibrariesERKNSt7__cxx1112basic_stringIcSt11char_traitsIcESaIcEEENS_5UseToE(ptr noundef nonnull align 8 dereferenceable(2912) %72, ptr noundef nonnull align 8 dereferenceable(32) %73, i32 noundef %74)
  store ptr %75, ptr %20, align 8, !tbaa !102
  %76 = load ptr, ptr %20, align 8, !tbaa !102
  %77 = icmp ne ptr %76, null
  br i1 %77, label %78, label %95

78:                                               ; preds = %71
  %79 = load ptr, ptr %20, align 8, !tbaa !102
  %80 = getelementptr inbounds nuw %struct.cmLinkImplementationLibraries, ptr %79, i32 0, i32 2
  %81 = load i8, ptr %80, align 8, !tbaa !89, !range !100, !noundef !101
  %82 = trunc i8 %81 to i1
  %83 = load ptr, ptr %14, align 8, !tbaa !63
  %84 = getelementptr inbounds nuw %struct.EvaluatedTargetPropertyEntries, ptr %83, i32 0, i32 1
  %85 = zext i1 %82 to i8
  store i8 %85, ptr %84, align 8, !tbaa !65
  %86 = load ptr, ptr %9, align 8, !tbaa !41
  %87 = load ptr, ptr %10, align 8, !tbaa !43
  %88 = load ptr, ptr %11, align 8, !tbaa !43
  %89 = load ptr, ptr %12, align 8, !tbaa !43
  %90 = load ptr, ptr %13, align 8, !tbaa !44
  %91 = load ptr, ptr %14, align 8, !tbaa !63
  %92 = load i32, ptr %16, align 4, !tbaa !85
  %93 = load ptr, ptr %20, align 8, !tbaa !102
  %94 = getelementptr inbounds nuw %struct.cmLinkImplementationLibraries, ptr %93, i32 0, i32 0
  call void @_ZN12_GLOBAL__N_117addInterfaceEntryEPK17cmGeneratorTargetRKNSt7__cxx1112basic_stringIcSt11char_traitsIcESaIcEEESA_SA_P31cmGeneratorExpressionDAGCheckerR30EvaluatedTargetPropertyEntriesNS0_5UseToERKSt6vectorI14cmLinkImplItemSaISH_EE(ptr noundef %86, ptr noundef nonnull align 8 dereferenceable(32) %87, ptr noundef nonnull align 8 dereferenceable(32) %88, ptr noundef nonnull align 8 dereferenceable(32) %89, ptr noundef %90, ptr noundef nonnull align 8 dereferenceable(25) %91, i32 noundef %92, ptr noundef nonnull align 8 dereferenceable(24) %94)
  br label %95

95:                                               ; preds = %78, %71
  call void @llvm.lifetime.end.p0(i64 8, ptr %20) #3
  br label %96

96:                                               ; preds = %95, %70
  ret void
}