; Function Attrs: mustprogress uwtable
define dso_local void @_Z19AddInterfaceEntriesPK17cmGeneratorTargetRKNSt7__cxx1112basic_stringIcSt11char_traitsIcESaIcEEES9_S9_P31cmGeneratorExpressionDAGCheckerR30EvaluatedTargetPropertyEntries23IncludeRuntimeInterfaceNS_5UseToE(ptr noundef %0, ptr noundef nonnull align 8 dereferenceable(32) %1, ptr noundef nonnull align 8 dereferenceable(32) %2, ptr noundef nonnull align 8 dereferenceable(32) %3, ptr noundef %4, ptr noundef nonnull align 8 dereferenceable(25) %5, i32 noundef %6, i32 noundef %7) local_unnamed_addr #5 {
  %9 = icmp eq i32 %6, 0
  br i1 %9, label %10, label %21

10:                                               ; preds = %8
  %11 = tail call noundef ptr @_ZNK17cmGeneratorTarget21GetLinkImplementationERKNSt7__cxx1112basic_stringIcSt11char_traitsIcESaIcEEENS_5UseToE(ptr noundef nonnull align 8 dereferenceable(2912) %0, ptr noundef nonnull align 8 dereferenceable(32) %1, i32 noundef %7)
  %.not39 = icmp eq ptr %11, null
  br i1 %.not39, label %28, label %12

12:                                               ; preds = %10
  %13 = getelementptr inbounds nuw i8, ptr %11, i64 48
  %14 = load i8, ptr %13, align 8, !tbaa !73, !range !64, !noundef !65
  %15 = getelementptr inbounds nuw i8, ptr %5, i64 24
  store i8 %14, ptr %15, align 8, !tbaa !84
  %16 = getelementptr inbounds nuw i8, ptr %11, i64 80
  %17 = tail call ptr @_ZNKSt10_HashtableINSt7__cxx1112basic_stringIcSt11char_traitsIcESaIcEEESt4pairIKS5_St6vectorI14cmLinkImplItemSaIS9_EEESaISC_ENSt8__detail10_Select1stESt8equal_toIS5_ESt4hashIS5_ENSE_18_Mod_range_hashingENSE_20_Default_ranged_hashENSE_20_Prime_rehash_policyENSE_17_Hashtable_traitsILb1ELb0ELb1EEEE4findERS7_(ptr noundef nonnull align 8 dereferenceable(56) %16, ptr noundef nonnull align 8 dereferenceable(32) %3)
  %.not47 = icmp eq ptr %17, null
  br i1 %.not47, label %.sink.split, label %18

18:                                               ; preds = %12
  %19 = getelementptr inbounds nuw i8, ptr %17, i64 40
  %.val = load ptr, ptr %19, align 8, !tbaa !4
  %20 = getelementptr i8, ptr %17, i64 48
  %.val40 = load ptr, ptr %20, align 8, !tbaa !4
  tail call fastcc void @_ZN12_GLOBAL__N_117addInterfaceEntryEPK17cmGeneratorTargetRKNSt7__cxx1112basic_stringIcSt11char_traitsIcESaIcEEESA_SA_P31cmGeneratorExpressionDAGCheckerR30EvaluatedTargetPropertyEntriesNS0_5UseToERKSt6vectorI14cmLinkImplItemSaISH_EE(ptr noundef nonnull %0, ptr noundef nonnull align 8 dereferenceable(32) %1, ptr noundef nonnull align 8 dereferenceable(32) %2, ptr noundef nonnull align 8 dereferenceable(32) %3, ptr noundef %4, ptr noundef nonnull align 8 dereferenceable(25) %5, i32 noundef %7, ptr %.val, ptr %.val40)
  br label %.sink.split

21:                                               ; preds = %8
  %22 = tail call noundef ptr @_ZNK17cmGeneratorTarget30GetLinkImplementationLibrariesERKNSt7__cxx1112basic_stringIcSt11char_traitsIcESaIcEEENS_5UseToE(ptr noundef nonnull align 8 dereferenceable(2912) %0, ptr noundef nonnull align 8 dereferenceable(32) %1, i32 noundef %7)
  %.not = icmp eq ptr %22, null
  br i1 %.not, label %28, label %23

23:                                               ; preds = %21
  %24 = getelementptr inbounds nuw i8, ptr %22, i64 48
  %25 = load i8, ptr %24, align 8, !tbaa !73, !range !64, !noundef !65
  %26 = getelementptr inbounds nuw i8, ptr %5, i64 24
  store i8 %25, ptr %26, align 8, !tbaa !84
  br label %.sink.split

.sink.split:                                      ; preds = %12, %18, %23
  %.sink = phi ptr [ %22, %23 ], [ %11, %18 ], [ %11, %12 ]
  %.val43 = load ptr, ptr %.sink, align 8, !tbaa !4
  %27 = getelementptr i8, ptr %.sink, i64 8
  %.val44 = load ptr, ptr %27, align 8, !tbaa !4
  tail call fastcc void @_ZN12_GLOBAL__N_117addInterfaceEntryEPK17cmGeneratorTargetRKNSt7__cxx1112basic_stringIcSt11char_traitsIcESaIcEEESA_SA_P31cmGeneratorExpressionDAGCheckerR30EvaluatedTargetPropertyEntriesNS0_5UseToERKSt6vectorI14cmLinkImplItemSaISH_EE(ptr noundef nonnull %0, ptr noundef nonnull align 8 dereferenceable(32) %1, ptr noundef nonnull align 8 dereferenceable(32) %2, ptr noundef nonnull align 8 dereferenceable(32) %3, ptr noundef %4, ptr noundef nonnull align 8 dereferenceable(25) %5, i32 noundef %7, ptr %.val43, ptr %.val44)
  br label %28

28:                                               ; preds = %.sink.split, %21, %10
  ret void
}